#include <math.h>
#include <stdio.h>
#include <stdlib.h>
#include <string.h>

int main(){
    double a;
    scanf("%lf",&a);
    char b[600],c[600];
    getchar();
    gets(b);
    gets(c);
    int d,e,f,g;
    int h=0;
    d=strlen(b);
    e=strlen(c);
    if(d!=e){
             printf("error");
             }
    else{
         for(int i=0;i<=d-1;i++){
                 if(b[i]!='A'&&b[i]!='G'&&b[i]!='C'&&b[i]!='T'){
                                                                f=1;}
                                                                 if(c[i]!='A'&&c[i]!='G'&&c[i]!='C'&&c[i]!='T'){
                                                                g=1;}
                                                                }
         if(f==1||g==1){
                        printf("error");}
         else{
              for(int i=0;i<=d-1;i++){
                      if(b[i]==c[i]){
                                     h++;}}
                   //   printf("%lf",1.0*h/a);
              if(1.0*h/d>a){
                            printf("yes");}
              else{
                   printf("no");}}}
    int y;
    scanf("%d",&y);
             return 0;}
    
