; ModuleID = '5/178.c'
source_filename = "5/178.c"
target datalayout = "e-m:e-p270:32:32-p271:32:32-p272:64:64-i64:64-f80:128-n8:16:32:64-S128"
target triple = "x86_64-pc-linux-gnu"

@.str = private unnamed_addr constant [4 x i8] c"%lf\00", align 1
@.str.1 = private unnamed_addr constant [6 x i8] c"error\00", align 1
@.str.2 = private unnamed_addr constant [4 x i8] c"yes\00", align 1
@.str.3 = private unnamed_addr constant [3 x i8] c"no\00", align 1
@.str.4 = private unnamed_addr constant [3 x i8] c"%d\00", align 1

; Function Attrs: noinline nounwind uwtable
define dso_local i32 @main() #0 {
  %1 = alloca i32, align 4
  %2 = alloca double, align 8
  %3 = alloca [600 x i8], align 16
  %4 = alloca [600 x i8], align 16
  %5 = alloca i32, align 4
  %6 = alloca i32, align 4
  %7 = alloca i32, align 4
  %8 = alloca i32, align 4
  %9 = alloca i32, align 4
  %10 = alloca i32, align 4
  %11 = alloca i32, align 4
  %12 = alloca i32, align 4
  store i32 0, i32* %1, align 4
  %13 = call i32 (i8*, ...) @__isoc99_scanf(i8* getelementptr inbounds ([4 x i8], [4 x i8]* @.str, i64 0, i64 0), double* %2)
  %14 = call i32 @getchar()
  %15 = getelementptr inbounds [600 x i8], [600 x i8]* %3, i64 0, i64 0
  %16 = call i32 (i8*, ...) bitcast (i32 (...)* @gets to i32 (i8*, ...)*)(i8* %15)
  %17 = getelementptr inbounds [600 x i8], [600 x i8]* %4, i64 0, i64 0
  %18 = call i32 (i8*, ...) bitcast (i32 (...)* @gets to i32 (i8*, ...)*)(i8* %17)
  store i32 0, i32* %9, align 4
  %19 = getelementptr inbounds [600 x i8], [600 x i8]* %3, i64 0, i64 0
  %20 = call i64 @strlen(i8* %19) #3
  %21 = trunc i64 %20 to i32
  store i32 %21, i32* %5, align 4
  %22 = getelementptr inbounds [600 x i8], [600 x i8]* %4, i64 0, i64 0
  %23 = call i64 @strlen(i8* %22) #3
  %24 = trunc i64 %23 to i32
  store i32 %24, i32* %6, align 4
  %25 = load i32, i32* %5, align 4
  %26 = load i32, i32* %6, align 4
  %27 = icmp ne i32 %25, %26
  br i1 %27, label %28, label %30

28:                                               ; preds = %0
  %29 = call i32 (i8*, ...) @printf(i8* getelementptr inbounds ([6 x i8], [6 x i8]* @.str.1, i64 0, i64 0))
  br label %146

30:                                               ; preds = %0
  store i32 0, i32* %10, align 4
  br label %31

31:                                               ; preds = %95, %30
  %32 = load i32, i32* %10, align 4
  %33 = load i32, i32* %5, align 4
  %34 = sub nsw i32 %33, 1
  %35 = icmp sle i32 %32, %34
  br i1 %35, label %36, label %98

36:                                               ; preds = %31
  %37 = load i32, i32* %10, align 4
  %38 = sext i32 %37 to i64
  %39 = getelementptr inbounds [600 x i8], [600 x i8]* %3, i64 0, i64 %38
  %40 = load i8, i8* %39, align 1
  %41 = sext i8 %40 to i32
  %42 = icmp ne i32 %41, 65
  br i1 %42, label %43, label %65

43:                                               ; preds = %36
  %44 = load i32, i32* %10, align 4
  %45 = sext i32 %44 to i64
  %46 = getelementptr inbounds [600 x i8], [600 x i8]* %3, i64 0, i64 %45
  %47 = load i8, i8* %46, align 1
  %48 = sext i8 %47 to i32
  %49 = icmp ne i32 %48, 71
  br i1 %49, label %50, label %65

50:                                               ; preds = %43
  %51 = load i32, i32* %10, align 4
  %52 = sext i32 %51 to i64
  %53 = getelementptr inbounds [600 x i8], [600 x i8]* %3, i64 0, i64 %52
  %54 = load i8, i8* %53, align 1
  %55 = sext i8 %54 to i32
  %56 = icmp ne i32 %55, 67
  br i1 %56, label %57, label %65

57:                                               ; preds = %50
  %58 = load i32, i32* %10, align 4
  %59 = sext i32 %58 to i64
  %60 = getelementptr inbounds [600 x i8], [600 x i8]* %3, i64 0, i64 %59
  %61 = load i8, i8* %60, align 1
  %62 = sext i8 %61 to i32
  %63 = icmp ne i32 %62, 84
  br i1 %63, label %64, label %65

64:                                               ; preds = %57
  store i32 1, i32* %7, align 4
  br label %65

65:                                               ; preds = %64, %57, %50, %43, %36
  %66 = load i32, i32* %10, align 4
  %67 = sext i32 %66 to i64
  %68 = getelementptr inbounds [600 x i8], [600 x i8]* %4, i64 0, i64 %67
  %69 = load i8, i8* %68, align 1
  %70 = sext i8 %69 to i32
  %71 = icmp ne i32 %70, 65
  br i1 %71, label %72, label %94

72:                                               ; preds = %65
  %73 = load i32, i32* %10, align 4
  %74 = sext i32 %73 to i64
  %75 = getelementptr inbounds [600 x i8], [600 x i8]* %4, i64 0, i64 %74
  %76 = load i8, i8* %75, align 1
  %77 = sext i8 %76 to i32
  %78 = icmp ne i32 %77, 71
  br i1 %78, label %79, label %94

79:                                               ; preds = %72
  %80 = load i32, i32* %10, align 4
  %81 = sext i32 %80 to i64
  %82 = getelementptr inbounds [600 x i8], [600 x i8]* %4, i64 0, i64 %81
  %83 = load i8, i8* %82, align 1
  %84 = sext i8 %83 to i32
  %85 = icmp ne i32 %84, 67
  br i1 %85, label %86, label %94

86:                                               ; preds = %79
  %87 = load i32, i32* %10, align 4
  %88 = sext i32 %87 to i64
  %89 = getelementptr inbounds [600 x i8], [600 x i8]* %4, i64 0, i64 %88
  %90 = load i8, i8* %89, align 1
  %91 = sext i8 %90 to i32
  %92 = icmp ne i32 %91, 84
  br i1 %92, label %93, label %94

93:                                               ; preds = %86
  store i32 1, i32* %8, align 4
  br label %94

94:                                               ; preds = %93, %86, %79, %72, %65
  br label %95

95:                                               ; preds = %94
  %96 = load i32, i32* %10, align 4
  %97 = add nsw i32 %96, 1
  store i32 %97, i32* %10, align 4
  br label %31

98:                                               ; preds = %31
  %99 = load i32, i32* %7, align 4
  %100 = icmp eq i32 %99, 1
  br i1 %100, label %104, label %101

101:                                              ; preds = %98
  %102 = load i32, i32* %8, align 4
  %103 = icmp eq i32 %102, 1
  br i1 %103, label %104, label %106

104:                                              ; preds = %101, %98
  %105 = call i32 (i8*, ...) @printf(i8* getelementptr inbounds ([6 x i8], [6 x i8]* @.str.1, i64 0, i64 0))
  br label %145

106:                                              ; preds = %101
  store i32 0, i32* %11, align 4
  br label %107

107:                                              ; preds = %128, %106
  %108 = load i32, i32* %11, align 4
  %109 = load i32, i32* %5, align 4
  %110 = sub nsw i32 %109, 1
  %111 = icmp sle i32 %108, %110
  br i1 %111, label %112, label %131

112:                                              ; preds = %107
  %113 = load i32, i32* %11, align 4
  %114 = sext i32 %113 to i64
  %115 = getelementptr inbounds [600 x i8], [600 x i8]* %3, i64 0, i64 %114
  %116 = load i8, i8* %115, align 1
  %117 = sext i8 %116 to i32
  %118 = load i32, i32* %11, align 4
  %119 = sext i32 %118 to i64
  %120 = getelementptr inbounds [600 x i8], [600 x i8]* %4, i64 0, i64 %119
  %121 = load i8, i8* %120, align 1
  %122 = sext i8 %121 to i32
  %123 = icmp eq i32 %117, %122
  br i1 %123, label %124, label %127

124:                                              ; preds = %112
  %125 = load i32, i32* %9, align 4
  %126 = add nsw i32 %125, 1
  store i32 %126, i32* %9, align 4
  br label %127

127:                                              ; preds = %124, %112
  br label %128

128:                                              ; preds = %127
  %129 = load i32, i32* %11, align 4
  %130 = add nsw i32 %129, 1
  store i32 %130, i32* %11, align 4
  br label %107

131:                                              ; preds = %107
  %132 = load i32, i32* %9, align 4
  %133 = sitofp i32 %132 to double
  %134 = fmul double 1.000000e+00, %133
  %135 = load i32, i32* %5, align 4
  %136 = sitofp i32 %135 to double
  %137 = fdiv double %134, %136
  %138 = load double, double* %2, align 8
  %139 = fcmp ogt double %137, %138
  br i1 %139, label %140, label %142

140:                                              ; preds = %131
  %141 = call i32 (i8*, ...) @printf(i8* getelementptr inbounds ([4 x i8], [4 x i8]* @.str.2, i64 0, i64 0))
  br label %144

142:                                              ; preds = %131
  %143 = call i32 (i8*, ...) @printf(i8* getelementptr inbounds ([3 x i8], [3 x i8]* @.str.3, i64 0, i64 0))
  br label %144

144:                                              ; preds = %142, %140
  br label %145

145:                                              ; preds = %144, %104
  br label %146

146:                                              ; preds = %145, %28
  %147 = call i32 (i8*, ...) @__isoc99_scanf(i8* getelementptr inbounds ([3 x i8], [3 x i8]* @.str.4, i64 0, i64 0), i32* %12)
  ret i32 0
}

declare dso_local i32 @__isoc99_scanf(i8*, ...) #1

declare dso_local i32 @getchar() #1

declare dso_local i32 @gets(...) #1

; Function Attrs: nounwind readonly
declare dso_local i64 @strlen(i8*) #2

declare dso_local i32 @printf(i8*, ...) #1


!llvm.module.flags = !{!0}
!llvm.ident = !{!1}

!0 = !{i32 1, !"wchar_size", i32 4}
!1 = !{!"clang version 10.0.0-4ubuntu1 "}
